target datalayout = "e-m:e-p270:32:32-p271:32:32-p272:64:64-i64:64-i128:128-f80:128-n8:16:32:64-S128"
target triple = "x86_64-pc-linux-gnu"

%struct.HTable = type { i32, ptr }
%struct.Module_ = type { ptr, ptr, ptr, i16, i32, ptr, %struct.HTable, ptr, ptr, ptr, ptr, ptr, ptr, ptr, ptr, ptr }
%struct.Path_ = type { %union.SourceSpan, ptr, i32 }
%union.SourceSpan = type { i64 }
%struct.VHeader_ = type { i32, i32, [0 x i8] }
%struct.CompilationUnit_ = type { ptr, ptr, ptr, ptr, ptr, ptr, ptr, ptr, ptr, ptr, i32, ptr, i8, i8, i8, i8, ptr, ptr, ptr, ptr, ptr, ptr, ptr, ptr, ptr, ptr, ptr, ptr, %struct.HTable, i32, ptr, ptr, %struct.anon.85 }
%struct.anon.85 = type { ptr, ptr }
%struct.Decl_ = type { ptr, ptr, %union.SourceSpan, i64, %union.anon, i32, %union.anon.0, i64, ptr, ptr, ptr, %union.anon.1 }
%union.anon = type { ptr }
%union.anon.0 = type { i16 }
%union.anon.1 = type { %struct.FuncDecl }
%struct.FuncDecl = type { i32, [4 x i8], %struct.Signature_, i32, i32, %union.anon.8 }
%struct.Signature_ = type <{ %struct.CalleeAttributes, i16, i8, i32, i32, [4 x i8], ptr }>
%struct.CalleeAttributes = type { i8 }
%union.anon.8 = type { %struct.anon.9 }
%struct.anon.9 = type { i16, %union.anon.10 }
%union.anon.10 = type { ptr }
%struct.ImportDecl = type { ptr, i8, ptr }

@.str = private unnamed_addr constant [56 x i8] c"Module '%s' imported more than once, please remove one.\00", align 1
@.str.1 = private unnamed_addr constant [27 x i8] c"The previous one was here.\00", align 1
@.str.2 = private unnamed_addr constant [66 x i8] c"No module named '%s' could be found, did you type the name right?\00", align 1
@.str.3 = private unnamed_addr constant [68 x i8] c"Importing the current module is not allowed, you need to remove it.\00", align 1

; Function Attrs: nounwind uwtable
define dso_local void @sema_analysis_pass_process_imports(ptr noundef %0) #0 {
  %2 = alloca ptr, align 8
  %3 = alloca ptr, align 8
  %4 = alloca ptr, align 8
  %5 = alloca i32, align 4
  %6 = alloca ptr, align 8
  %7 = alloca ptr, align 8
  %8 = alloca i32, align 4
  %9 = alloca ptr, align 8
  %10 = alloca ptr, align 8
  %11 = alloca ptr, align 8
  %12 = alloca i32, align 4
  %13 = alloca i32, align 4
  %14 = alloca i32, align 4
  %15 = alloca ptr, align 8
  %16 = alloca ptr, align 8
  %17 = alloca i32, align 4
  %18 = alloca i32, align 4
  %19 = alloca ptr, align 8
  %20 = alloca ptr, align 8
  %21 = alloca i32, align 4
  %22 = alloca ptr, align 8
  store ptr %0, ptr %11, align 8
  br label %23

23:                                               ; preds = %1
  br label %24

24:                                               ; preds = %23
  store i32 0, ptr %12, align 4
  store i32 0, ptr %13, align 4
  %25 = load ptr, ptr %11, align 8
  %26 = getelementptr inbounds %struct.Module_, ptr %25, i32 0, i32 7
  %27 = load ptr, ptr %26, align 8
  store ptr %27, ptr %6, align 8
  %28 = load ptr, ptr %6, align 8
  %29 = icmp ne ptr %28, null
  br i1 %29, label %31, label %30

30:                                               ; preds = %24
  store i32 0, ptr %5, align 4
  br label %36

31:                                               ; preds = %24
  %32 = load ptr, ptr %6, align 8
  store ptr %32, ptr %7, align 8
  %33 = load ptr, ptr %7, align 8
  %34 = getelementptr inbounds %struct.VHeader_, ptr %33, i64 -1
  %35 = load i32, ptr %34, align 4
  store i32 %35, ptr %5, align 4
  br label %36

36:                                               ; preds = %31, %30
  %37 = load i32, ptr %5, align 4
  store i32 %37, ptr %14, align 4
  br label %38

38:                                               ; preds = %193, %36
  %39 = load i32, ptr %13, align 4
  %40 = load i32, ptr %14, align 4
  %41 = icmp ult i32 %39, %40
  br i1 %41, label %42, label %196

42:                                               ; preds = %38
  %43 = load ptr, ptr %11, align 8
  %44 = getelementptr inbounds %struct.Module_, ptr %43, i32 0, i32 7
  %45 = load ptr, ptr %44, align 8
  %46 = load i32, ptr %13, align 4
  %47 = zext i32 %46 to i64
  %48 = getelementptr inbounds ptr, ptr %45, i64 %47
  %49 = load ptr, ptr %48, align 8
  store ptr %49, ptr %15, align 8
  br label %50

50:                                               ; preds = %42
  br label %51

51:                                               ; preds = %50
  %52 = load ptr, ptr %15, align 8
  %53 = getelementptr inbounds %struct.CompilationUnit_, ptr %52, i32 0, i32 2
  %54 = load ptr, ptr %53, align 8
  store ptr %54, ptr %16, align 8
  %55 = load ptr, ptr %16, align 8
  store ptr %55, ptr %9, align 8
  %56 = load ptr, ptr %9, align 8
  %57 = icmp ne ptr %56, null
  br i1 %57, label %59, label %58

58:                                               ; preds = %51
  store i32 0, ptr %8, align 4
  br label %64

59:                                               ; preds = %51
  %60 = load ptr, ptr %9, align 8
  store ptr %60, ptr %10, align 8
  %61 = load ptr, ptr %10, align 8
  %62 = getelementptr inbounds %struct.VHeader_, ptr %61, i64 -1
  %63 = load i32, ptr %62, align 4
  store i32 %63, ptr %8, align 4
  br label %64

64:                                               ; preds = %59, %58
  %65 = load i32, ptr %8, align 4
  store i32 %65, ptr %17, align 4
  store i32 0, ptr %18, align 4
  br label %66

66:                                               ; preds = %186, %64
  %67 = load i32, ptr %18, align 4
  %68 = load i32, ptr %17, align 4
  %69 = icmp ult i32 %67, %68
  br i1 %69, label %70, label %189

70:                                               ; preds = %66
  %71 = load ptr, ptr %16, align 8
  %72 = load i32, ptr %18, align 4
  %73 = zext i32 %72 to i64
  %74 = getelementptr inbounds ptr, ptr %71, i64 %73
  %75 = load ptr, ptr %74, align 8
  store ptr %75, ptr %19, align 8
  %76 = load ptr, ptr %19, align 8
  %77 = getelementptr inbounds %struct.Decl_, ptr %76, i32 0, i32 3
  %78 = load i64, ptr %77, align 8
  %79 = and i64 %78, -897
  %80 = or i64 %79, 128
  store i64 %80, ptr %77, align 8
  %81 = load ptr, ptr %19, align 8
  %82 = getelementptr inbounds %struct.Decl_, ptr %81, i32 0, i32 11
  %83 = getelementptr inbounds %struct.ImportDecl, ptr %82, i32 0, i32 0
  %84 = load ptr, ptr %83, align 8
  store ptr %84, ptr %20, align 8
  store i32 0, ptr %21, align 4
  br label %85

85:                                               ; preds = %131, %70
  %86 = load i32, ptr %21, align 4
  %87 = load i32, ptr %18, align 4
  %88 = icmp ult i32 %86, %87
  br i1 %88, label %89, label %134

89:                                               ; preds = %85
  %90 = load ptr, ptr %16, align 8
  %91 = load i32, ptr %21, align 4
  %92 = zext i32 %91 to i64
  %93 = getelementptr inbounds ptr, ptr %90, i64 %92
  %94 = load ptr, ptr %93, align 8
  %95 = getelementptr inbounds %struct.Decl_, ptr %94, i32 0, i32 11
  %96 = getelementptr inbounds %struct.ImportDecl, ptr %95, i32 0, i32 0
  %97 = load ptr, ptr %96, align 8
  %98 = getelementptr inbounds %struct.Path_, ptr %97, i32 0, i32 1
  %99 = load ptr, ptr %98, align 8
  %100 = load ptr, ptr %20, align 8
  %101 = getelementptr inbounds %struct.Path_, ptr %100, i32 0, i32 1
  %102 = load ptr, ptr %101, align 8
  %103 = icmp eq ptr %99, %102
  br i1 %103, label %104, label %130

104:                                              ; preds = %89
  %105 = load ptr, ptr %19, align 8
  %106 = getelementptr inbounds %struct.Decl_, ptr %105, i32 0, i32 2
  %107 = load ptr, ptr %20, align 8
  %108 = getelementptr inbounds %struct.Path_, ptr %107, i32 0, i32 1
  %109 = load ptr, ptr %108, align 8
  %110 = getelementptr inbounds %union.SourceSpan, ptr %106, i32 0, i32 0
  %111 = load i64, ptr %110, align 8
  call void (i64, ptr, ...) @sema_error_at(i64 %111, ptr noundef @.str, ptr noundef %109)
  %112 = load ptr, ptr %16, align 8
  %113 = load i32, ptr %21, align 4
  %114 = zext i32 %113 to i64
  %115 = getelementptr inbounds ptr, ptr %112, i64 %114
  %116 = load ptr, ptr %115, align 8
  %117 = getelementptr inbounds %struct.Decl_, ptr %116, i32 0, i32 2
  %118 = getelementptr inbounds %union.SourceSpan, ptr %117, i32 0, i32 0
  %119 = load i64, ptr %118, align 8
  call void (i64, ptr, ...) @sema_error_prev_at(i64 %119, ptr noundef @.str.1)
  %120 = load ptr, ptr %19, align 8
  store ptr %120, ptr %2, align 8
  %121 = load ptr, ptr %2, align 8
  %122 = getelementptr inbounds %struct.Decl_, ptr %121, i32 0, i32 3
  %123 = load i64, ptr %122, align 8
  %124 = and i64 %123, -128
  store i64 %124, ptr %122, align 8
  %125 = load ptr, ptr %2, align 8
  %126 = getelementptr inbounds %struct.Decl_, ptr %125, i32 0, i32 3
  %127 = load i64, ptr %126, align 8
  %128 = and i64 %127, -897
  %129 = or i64 %128, 256
  store i64 %129, ptr %126, align 8
  br label %185

130:                                              ; preds = %89
  br label %131

131:                                              ; preds = %130
  %132 = load i32, ptr %21, align 4
  %133 = add i32 %132, 1
  store i32 %133, ptr %21, align 4
  br label %85, !llvm.loop !11

134:                                              ; preds = %85
  %135 = load ptr, ptr %20, align 8
  %136 = getelementptr inbounds %struct.Path_, ptr %135, i32 0, i32 1
  %137 = load ptr, ptr %136, align 8
  %138 = call ptr @global_context_find_module(ptr noundef %137)
  store ptr %138, ptr %22, align 8
  %139 = load ptr, ptr %22, align 8
  %140 = icmp ne ptr %139, null
  br i1 %140, label %159, label %141

141:                                              ; preds = %134
  %142 = load ptr, ptr %19, align 8
  %143 = getelementptr inbounds %struct.Decl_, ptr %142, i32 0, i32 2
  %144 = load ptr, ptr %20, align 8
  %145 = getelementptr inbounds %struct.Path_, ptr %144, i32 0, i32 1
  %146 = load ptr, ptr %145, align 8
  %147 = getelementptr inbounds %union.SourceSpan, ptr %143, i32 0, i32 0
  %148 = load i64, ptr %147, align 8
  call void (i64, ptr, ...) @sema_error_at(i64 %148, ptr noundef @.str.2, ptr noundef %146)
  %149 = load ptr, ptr %19, align 8
  store ptr %149, ptr %3, align 8
  %150 = load ptr, ptr %3, align 8
  %151 = getelementptr inbounds %struct.Decl_, ptr %150, i32 0, i32 3
  %152 = load i64, ptr %151, align 8
  %153 = and i64 %152, -128
  store i64 %153, ptr %151, align 8
  %154 = load ptr, ptr %3, align 8
  %155 = getelementptr inbounds %struct.Decl_, ptr %154, i32 0, i32 3
  %156 = load i64, ptr %155, align 8
  %157 = and i64 %156, -897
  %158 = or i64 %157, 256
  store i64 %158, ptr %155, align 8
  br label %186

159:                                              ; preds = %134
  %160 = load ptr, ptr %22, align 8
  %161 = load ptr, ptr %11, align 8
  %162 = icmp eq ptr %160, %161
  br i1 %162, label %163, label %178

163:                                              ; preds = %159
  %164 = load ptr, ptr %19, align 8
  %165 = getelementptr inbounds %struct.Decl_, ptr %164, i32 0, i32 2
  %166 = getelementptr inbounds %union.SourceSpan, ptr %165, i32 0, i32 0
  %167 = load i64, ptr %166, align 8
  call void (i64, ptr, ...) @sema_error_at(i64 %167, ptr noundef @.str.3)
  %168 = load ptr, ptr %19, align 8
  store ptr %168, ptr %4, align 8
  %169 = load ptr, ptr %4, align 8
  %170 = getelementptr inbounds %struct.Decl_, ptr %169, i32 0, i32 3
  %171 = load i64, ptr %170, align 8
  %172 = and i64 %171, -128
  store i64 %172, ptr %170, align 8
  %173 = load ptr, ptr %4, align 8
  %174 = getelementptr inbounds %struct.Decl_, ptr %173, i32 0, i32 3
  %175 = load i64, ptr %174, align 8
  %176 = and i64 %175, -897
  %177 = or i64 %176, 256
  store i64 %177, ptr %174, align 8
  br label %186

178:                                              ; preds = %159
  br label %179

179:                                              ; preds = %178
  br label %180

180:                                              ; preds = %179
  %181 = load ptr, ptr %22, align 8
  %182 = load ptr, ptr %19, align 8
  %183 = getelementptr inbounds %struct.Decl_, ptr %182, i32 0, i32 11
  %184 = getelementptr inbounds %struct.ImportDecl, ptr %183, i32 0, i32 2
  store ptr %181, ptr %184, align 8
  br label %185

185:                                              ; preds = %180, %104
  br label %186

186:                                              ; preds = %185, %163, %141
  %187 = load i32, ptr %18, align 4
  %188 = add i32 %187, 1
  store i32 %188, ptr %18, align 4
  br label %66, !llvm.loop !12

189:                                              ; preds = %66
  %190 = load i32, ptr %17, align 4
  %191 = load i32, ptr %12, align 4
  %192 = add i32 %191, %190
  store i32 %192, ptr %12, align 4
  br label %193

193:                                              ; preds = %189
  %194 = load i32, ptr %13, align 4
  %195 = add i32 %194, 1
  store i32 %195, ptr %13, align 4
  br label %38, !llvm.loop !13

196:                                              ; preds = %38
  br label %197

197:                                              ; preds = %196
  br label %198

198:                                              ; preds = %197
  ret void
}