; Function Attrs: nounwind uwtable
define dso_local void @sema_analysis_pass_process_imports(ptr noundef readonly %0) local_unnamed_addr #1 {
  %2 = getelementptr inbounds i8, ptr %0, i64 56
  %3 = load ptr, ptr %2, align 8
  %.not = icmp eq ptr %3, null
  br i1 %.not, label %._crit_edge74, label %4

4:                                                ; preds = %1
  %5 = getelementptr inbounds i8, ptr %3, i64 -8
  %6 = load i32, ptr %5, align 4
  %.not75 = icmp eq i32 %6, 0
  br i1 %.not75, label %._crit_edge74, label %.lr.ph73.preheader

.lr.ph73.preheader:                               ; preds = %4
  %wide.trip.count = zext i32 %6 to i64
  br label %.lr.ph73

.lr.ph73:                                         ; preds = %.lr.ph73.preheader, %._crit_edge70
  %indvars.iv85 = phi i64 [ 0, %.lr.ph73.preheader ], [ %indvars.iv.next86, %._crit_edge70 ]
  %7 = load ptr, ptr %2, align 8
  %8 = getelementptr inbounds ptr, ptr %7, i64 %indvars.iv85
  %9 = load ptr, ptr %8, align 8
  %10 = getelementptr inbounds i8, ptr %9, i64 16
  %11 = load ptr, ptr %10, align 8
  %.not61 = icmp eq ptr %11, null
  br i1 %.not61, label %._crit_edge70, label %12

12:                                               ; preds = %.lr.ph73
  %13 = getelementptr inbounds i8, ptr %11, i64 -8
  %14 = load i32, ptr %13, align 4
  %.not76 = icmp eq i32 %14, 0
  br i1 %.not76, label %._crit_edge70, label %.lr.ph69.preheader

.lr.ph69.preheader:                               ; preds = %12
  %wide.trip.count83 = zext i32 %14 to i64
  br label %.lr.ph69

.lr.ph69:                                         ; preds = %.lr.ph69.preheader, %60
  %indvars.iv80 = phi i64 [ 0, %.lr.ph69.preheader ], [ %indvars.iv.next81, %60 ]
  %15 = getelementptr inbounds ptr, ptr %11, i64 %indvars.iv80
  %16 = load ptr, ptr %15, align 8
  %17 = getelementptr inbounds i8, ptr %16, i64 24
  %18 = load i64, ptr %17, align 8
  %19 = and i64 %18, -897
  %20 = or disjoint i64 %19, 128
  store i64 %20, ptr %17, align 8
  %21 = getelementptr inbounds i8, ptr %16, i64 80
  %22 = load ptr, ptr %21, align 8
  %.not77 = icmp eq i64 %indvars.iv80, 0
  %.phi.trans.insert = getelementptr inbounds i8, ptr %22, i64 8
  %.pre = load ptr, ptr %.phi.trans.insert, align 8
  br i1 %.not77, label %._crit_edge, label %.lr.ph

23:                                               ; preds = %.lr.ph
  %indvars.iv.next = add nuw nsw i64 %indvars.iv, 1
  %exitcond.not = icmp eq i64 %indvars.iv.next, %indvars.iv80
  br i1 %exitcond.not, label %._crit_edge, label %.lr.ph, !llvm.loop !11

.lr.ph:                                           ; preds = %.lr.ph69, %23
  %indvars.iv = phi i64 [ %indvars.iv.next, %23 ], [ 0, %.lr.ph69 ]
  %24 = getelementptr inbounds ptr, ptr %11, i64 %indvars.iv
  %25 = load ptr, ptr %24, align 8
  %26 = getelementptr inbounds i8, ptr %25, i64 80
  %27 = load ptr, ptr %26, align 8
  %28 = getelementptr inbounds i8, ptr %27, i64 8
  %29 = load ptr, ptr %28, align 8
  %30 = icmp eq ptr %29, %.pre
  br i1 %30, label %31, label %23

31:                                               ; preds = %.lr.ph
  %32 = getelementptr inbounds ptr, ptr %11, i64 %indvars.iv
  %33 = getelementptr inbounds i8, ptr %16, i64 16
  %34 = load i64, ptr %33, align 8
  tail call void (i64, ptr, ...) @sema_error_at(i64 %34, ptr noundef nonnull @.str, ptr noundef %.pre) #11
  %35 = load ptr, ptr %32, align 8
  %36 = getelementptr inbounds i8, ptr %35, i64 16
  %37 = load i64, ptr %36, align 8
  tail call void (i64, ptr, ...) @sema_error_prev_at(i64 %37, ptr noundef nonnull @.str.1) #11
  %38 = load i64, ptr %17, align 8
  %39 = and i64 %38, -1024
  %40 = or disjoint i64 %39, 256
  store i64 %40, ptr %17, align 8
  br label %60

._crit_edge:                                      ; preds = %23, %.lr.ph69
  %41 = tail call ptr @global_context_find_module(ptr noundef %.pre) #11
  %.not62 = icmp eq ptr %41, null
  br i1 %.not62, label %42, label %50

42:                                               ; preds = %._crit_edge
  %43 = getelementptr inbounds i8, ptr %22, i64 8
  %44 = getelementptr inbounds i8, ptr %16, i64 16
  %45 = load ptr, ptr %43, align 8
  %46 = load i64, ptr %44, align 8
  tail call void (i64, ptr, ...) @sema_error_at(i64 %46, ptr noundef nonnull @.str.2, ptr noundef %45) #11
  %47 = load i64, ptr %17, align 8
  %48 = and i64 %47, -1024
  %49 = or disjoint i64 %48, 256
  store i64 %49, ptr %17, align 8
  br label %60

50:                                               ; preds = %._crit_edge
  %51 = icmp eq ptr %41, %0
  br i1 %51, label %52, label %58

52:                                               ; preds = %50
  %53 = getelementptr inbounds i8, ptr %16, i64 16
  %54 = load i64, ptr %53, align 8
  tail call void (i64, ptr, ...) @sema_error_at(i64 %54, ptr noundef nonnull @.str.3) #11
  %55 = load i64, ptr %17, align 8
  %56 = and i64 %55, -1024
  %57 = or disjoint i64 %56, 256
  store i64 %57, ptr %17, align 8
  br label %60

58:                                               ; preds = %50
  %59 = getelementptr inbounds i8, ptr %16, i64 96
  store ptr %41, ptr %59, align 8
  br label %60

60:                                               ; preds = %31, %58, %52, %42
  %indvars.iv.next81 = add nuw nsw i64 %indvars.iv80, 1
  %exitcond84.not = icmp eq i64 %indvars.iv.next81, %wide.trip.count83
  br i1 %exitcond84.not, label %._crit_edge70, label %.lr.ph69, !llvm.loop !12

._crit_edge70:                                    ; preds = %60, %.lr.ph73, %12
  %indvars.iv.next86 = add nuw nsw i64 %indvars.iv85, 1
  %exitcond88.not = icmp eq i64 %indvars.iv.next86, %wide.trip.count
  br i1 %exitcond88.not, label %._crit_edge74, label %.lr.ph73, !llvm.loop !13

._crit_edge74:                                    ; preds = %._crit_edge70, %1, %4
  ret void
}